(lp0
S'poi'
p1
aS'expenses'
p2
aS'shared_receipt_with_poi'
p3
aS'to_poi_rate'
p4
aS'from_poi_rate'
p5
aS'from_this_person_to_poi'
p6
aS'long_term_incentive'
p7
aVto_poi_median_pubIndex
p8
aS'other'
p9
aS'salary'
p10
aS'exercised_stock_options'
p11
a.